; Function Attrs: mustprogress nounwind uwtable
define dso_local void @_ZN5clang16OMPClausePrinter21VisitOMPNogroupClauseEPNS_16OMPNogroupClauseE(ptr noundef nonnull readonly align 8 captures(none) dereferenceable(16) %0, ptr noundef readnone captures(none) %1) local_unnamed_addr #1 align 2 {
  %3 = load ptr, ptr %0, align 8
  %4 = getelementptr inbounds nuw i8, ptr %3, i64 24
  %5 = load ptr, ptr %4, align 8
  %6 = getelementptr inbounds nuw i8, ptr %3, i64 32
  %7 = load ptr, ptr %6, align 8
  %8 = ptrtoint ptr %5 to i64
  %9 = ptrtoint ptr %7 to i64
  %10 = sub i64 %8, %9
  %11 = icmp ult i64 %10, 7
  br i1 %11, label %12, label %14

12:                                               ; preds = %2
  %13 = tail call noundef nonnull align 8 dereferenceable(48) ptr @_ZN4llvm11raw_ostream5writeEPKcm(ptr noundef nonnull align 8 dereferenceable(48) %3, ptr noundef nonnull @.str.32, i64 noundef 7) #22
  br label %_ZN4llvm11raw_ostreamlsEPKc.exit

14:                                               ; preds = %2
  tail call void @llvm.memcpy.p0.p0.i64(ptr noundef nonnull align 1 dereferenceable(7) %7, ptr noundef nonnull align 1 dereferenceable(7) @.str.32, i64 7, i1 false)
  %15 = load ptr, ptr %6, align 8
  %16 = getelementptr inbounds nuw i8, ptr %15, i64 7
  store ptr %16, ptr %6, align 8
  br label %_ZN4llvm11raw_ostreamlsEPKc.exit

_ZN4llvm11raw_ostreamlsEPKc.exit:                 ; preds = %12, %14
  ret void
}